; Function Attrs: inlinehint nounwind uwtable
define internal fastcc i64 @index_getattr(ptr noundef %0, i32 noundef %1, ptr noundef %2, ptr noundef writeonly captures(none) initializes((0, 1)) %3) unnamed_addr #6 {
  store i8 0, ptr %3, align 1
  %5 = getelementptr i8, ptr %0, i64 6
  %.val = load i16, ptr %5, align 2
  %6 = icmp slt i16 %.val, 0
  %7 = add i32 %1, -1
  br i1 %6, label %43, label %8

8:                                                ; preds = %4
  %9 = getelementptr inbounds nuw i8, ptr %2, i64 24
  %10 = sext i32 %7 to i64
  %11 = getelementptr inbounds [0 x %struct.CompactAttribute], ptr %9, i64 0, i64 %10
  %12 = load i32, ptr %11, align 4
  %13 = icmp sgt i32 %12, -1
  br i1 %13, label %14, label %41

14:                                               ; preds = %8
  %15 = getelementptr inbounds nuw i8, ptr %0, i64 8
  %16 = zext nneg i32 %12 to i64
  %17 = getelementptr inbounds nuw i8, ptr %15, i64 %16
  %18 = getelementptr inbounds nuw i8, ptr %11, i64 6
  %19 = load i8, ptr %18, align 2, !range !12, !noundef !13
  %20 = trunc nuw i8 %19 to i1
  %21 = getelementptr inbounds nuw i8, ptr %11, i64 4
  %22 = load i16, ptr %21, align 4
  br i1 %20, label %23, label %39

23:                                               ; preds = %14
  switch i16 %22, label %35 [
    i16 1, label %24
    i16 2, label %27
    i16 4, label %30
    i16 8, label %33
  ]

24:                                               ; preds = %23
  %25 = load i8, ptr %17, align 1
  %26 = sext i8 %25 to i64
  br label %fetch_att.exit

27:                                               ; preds = %23
  %28 = load i16, ptr %17, align 2
  %29 = sext i16 %28 to i64
  br label %fetch_att.exit

30:                                               ; preds = %23
  %31 = load i32, ptr %17, align 4
  %32 = sext i32 %31 to i64
  br label %fetch_att.exit

33:                                               ; preds = %23
  %34 = load i64, ptr %17, align 8
  br label %fetch_att.exit

35:                                               ; preds = %23
  %36 = sext i16 %22 to i32
  %37 = tail call zeroext i1 @errstart_cold(i32 noundef 21, ptr noundef null) #12
  tail call void @llvm.assume(i1 %37)
  %38 = tail call i32 (ptr, ...) @errmsg_internal(ptr noundef nonnull @.str.7, i32 noundef range(i32 -32768, 32768) %36) #11
  tail call void @errfinish(ptr noundef nonnull @.str.8, i32 noundef 70, ptr noundef nonnull @__func__.fetch_att) #11
  unreachable

39:                                               ; preds = %14
  %40 = ptrtoint ptr %17 to i64
  br label %fetch_att.exit

41:                                               ; preds = %8
  %42 = tail call i64 @nocache_index_getattr(ptr noundef nonnull %0, i32 noundef %1, ptr noundef nonnull %2) #11
  br label %fetch_att.exit

43:                                               ; preds = %4
  %44 = getelementptr inbounds nuw i8, ptr %0, i64 8
  %45 = ashr i32 %7, 3
  %46 = sext i32 %45 to i64
  %47 = getelementptr inbounds i8, ptr %44, i64 %46
  %48 = load i8, ptr %47, align 1
  %49 = zext i8 %48 to i32
  %50 = and i32 %7, 7
  %51 = shl nuw nsw i32 1, %50
  %52 = and i32 %51, %49
  %.not.i19 = icmp eq i32 %52, 0
  br i1 %.not.i19, label %53, label %54

53:                                               ; preds = %43
  store i8 1, ptr %3, align 1
  br label %fetch_att.exit

54:                                               ; preds = %43
  %55 = tail call i64 @nocache_index_getattr(ptr noundef nonnull %0, i32 noundef %1, ptr noundef %2) #11
  br label %fetch_att.exit

fetch_att.exit:                                   ; preds = %39, %33, %30, %27, %24, %41, %54, %53
  %.1 = phi i64 [ 0, %53 ], [ %55, %54 ], [ %42, %41 ], [ %34, %33 ], [ %32, %30 ], [ %29, %27 ], [ %26, %24 ], [ %40, %39 ]
  ret i64 %.1
}